target datalayout = "e-m:e-p270:32:32-p271:32:32-p272:64:64-i64:64-i128:128-f80:128-n8:16:32:64-S128"
target triple = "x86_64-pc-linux-gnu"

@.str.34 = private unnamed_addr constant [8 x i8] c"__index\00", align 1

; Function Attrs: nounwind uwtable
define internal i32 @lj_cf_package_seeall(ptr noundef %0) #0 {
  %2 = alloca ptr, align 8
  store ptr %0, ptr %2, align 8, !tbaa !4
  %3 = load ptr, ptr %2, align 8, !tbaa !4
  call void @luaL_checktype(ptr noundef %3, i32 noundef 1, i32 noundef 5)
  %4 = load ptr, ptr %2, align 8, !tbaa !4
  %5 = call i32 @lua_getmetatable(ptr noundef %4, i32 noundef 1)
  %6 = icmp ne i32 %5, 0
  br i1 %6, label %12, label %7

7:                                                ; preds = %1
  %8 = load ptr, ptr %2, align 8, !tbaa !4
  call void @lua_createtable(ptr noundef %8, i32 noundef 0, i32 noundef 1)
  %9 = load ptr, ptr %2, align 8, !tbaa !4
  call void @lua_pushvalue(ptr noundef %9, i32 noundef -1)
  %10 = load ptr, ptr %2, align 8, !tbaa !4
  %11 = call i32 @lua_setmetatable(ptr noundef %10, i32 noundef 1)
  br label %12

12:                                               ; preds = %7, %1
  %13 = load ptr, ptr %2, align 8, !tbaa !4
  call void @lua_pushvalue(ptr noundef %13, i32 noundef -10002)
  %14 = load ptr, ptr %2, align 8, !tbaa !4
  call void @lua_setfield(ptr noundef %14, i32 noundef -2, ptr noundef @.str.34)
  ret i32 0
}