; Function Attrs: nounwind uwtable
define internal noundef i32 @lj_cf_package_seeall(ptr noundef %0) #0 {
  tail call void @luaL_checktype(ptr noundef %0, i32 noundef 1, i32 noundef 5) #7
  %2 = tail call i32 @lua_getmetatable(ptr noundef %0, i32 noundef 1) #7
  %.not = icmp eq i32 %2, 0
  br i1 %.not, label %3, label %5

3:                                                ; preds = %1
  tail call void @lua_createtable(ptr noundef %0, i32 noundef 0, i32 noundef 1) #7
  tail call void @lua_pushvalue(ptr noundef %0, i32 noundef -1) #7
  %4 = tail call i32 @lua_setmetatable(ptr noundef %0, i32 noundef 1) #7
  br label %5

5:                                                ; preds = %3, %1
  tail call void @lua_pushvalue(ptr noundef %0, i32 noundef -10002) #7
  tail call void @lua_setfield(ptr noundef %0, i32 noundef -2, ptr noundef nonnull @.str.34) #7
  ret i32 0
}